target datalayout = "e-m:e-p270:32:32-p271:32:32-p272:64:64-i64:64-i128:128-f80:128-n8:16:32:64-S128"
target triple = "x86_64-unknown-linux-gnu"

%"class.rocksdb::Slice" = type { ptr, i64 }
%struct.__toku_dbt = type { ptr, i64, i64, i32 }
%"class.std::__cxx11::basic_string" = type { %"struct.std::__cxx11::basic_string<char>::_Alloc_hider", i64, %union.anon }
%"struct.std::__cxx11::basic_string<char>::_Alloc_hider" = type { ptr }
%union.anon = type { i64, [8 x i8] }
%"class.rocksdb::Endpoint" = type <{ %"class.rocksdb::Slice", i8, [7 x i8] }>
%"struct.rocksdb::RangeLockRequest" = type { i32, [4 x i8], %"class.rocksdb::Endpoint", %"class.rocksdb::Endpoint" }

; Function Attrs: mustprogress uwtable
define void @_ZN7rocksdb20RangeTreeLockTracker5TrackERKNS_16RangeLockRequestE(ptr noundef nonnull align 8 dereferenceable(16) %this, ptr noundef nonnull align 8 dereferenceable(56) %lock_req) unnamed_addr #0 align 2 personality ptr @__gxx_personality_v0 {
entry:
  %this.addr = alloca ptr, align 8
  %lock_req.addr = alloca ptr, align 8
  %start_dbt = alloca %struct.__toku_dbt, align 8
  %end_dbt = alloca %struct.__toku_dbt, align 8
  %start_key = alloca %"class.std::__cxx11::basic_string", align 8
  %end_key = alloca %"class.std::__cxx11::basic_string", align 8
  %exn.slot = alloca ptr, align 8
  %ehselector.slot = alloca i32, align 4
  %rl = alloca ptr, align 8
  store ptr %this, ptr %this.addr, align 8
  store ptr %lock_req, ptr %lock_req.addr, align 8
  %this1 = load ptr, ptr %this.addr, align 8
  call void @_ZNSt7__cxx1112basic_stringIcSt11char_traitsIcESaIcEEC1Ev(ptr noundef nonnull align 8 dereferenceable(32) %start_key) #13
  call void @_ZNSt7__cxx1112basic_stringIcSt11char_traitsIcESaIcEEC1Ev(ptr noundef nonnull align 8 dereferenceable(32) %end_key) #13
  %0 = load ptr, ptr %lock_req.addr, align 8
  %start_endp = getelementptr inbounds %"struct.rocksdb::RangeLockRequest", ptr %0, i32 0, i32 2
  invoke void @_ZN7rocksdb18serialize_endpointERKNS_8EndpointEPNSt7__cxx1112basic_stringIcSt11char_traitsIcESaIcEEE(ptr noundef nonnull align 8 dereferenceable(17) %start_endp, ptr noundef %start_key)
          to label %invoke.cont unwind label %lpad

invoke.cont:                                      ; preds = %entry
  %1 = load ptr, ptr %lock_req.addr, align 8
  %end_endp = getelementptr inbounds %"struct.rocksdb::RangeLockRequest", ptr %1, i32 0, i32 3
  invoke void @_ZN7rocksdb18serialize_endpointERKNS_8EndpointEPNSt7__cxx1112basic_stringIcSt11char_traitsIcESaIcEEE(ptr noundef nonnull align 8 dereferenceable(17) %end_endp, ptr noundef %end_key)
          to label %invoke.cont2 unwind label %lpad

invoke.cont2:                                     ; preds = %invoke.cont
  %call = call noundef ptr @_ZNSt7__cxx1112basic_stringIcSt11char_traitsIcESaIcEE4dataEv(ptr noundef nonnull align 8 dereferenceable(32) %start_key) #13
  %call3 = call noundef i64 @_ZNKSt7__cxx1112basic_stringIcSt11char_traitsIcESaIcEE4sizeEv(ptr noundef nonnull align 8 dereferenceable(32) %start_key) #13
  %call5 = invoke noundef ptr @_Z13toku_fill_dbtP10__toku_dbtPKvm(ptr noundef %start_dbt, ptr noundef %call, i64 noundef %call3)
          to label %invoke.cont4 unwind label %lpad

invoke.cont4:                                     ; preds = %invoke.cont2
  %call6 = call noundef ptr @_ZNSt7__cxx1112basic_stringIcSt11char_traitsIcESaIcEE4dataEv(ptr noundef nonnull align 8 dereferenceable(32) %end_key) #13
  %call7 = call noundef i64 @_ZNKSt7__cxx1112basic_stringIcSt11char_traitsIcESaIcEE4sizeEv(ptr noundef nonnull align 8 dereferenceable(32) %end_key) #13
  %call9 = invoke noundef ptr @_Z13toku_fill_dbtP10__toku_dbtPKvm(ptr noundef %end_dbt, ptr noundef %call6, i64 noundef %call7)
          to label %invoke.cont8 unwind label %lpad

invoke.cont8:                                     ; preds = %invoke.cont4
  %call11 = invoke noundef ptr @_ZN7rocksdb20RangeTreeLockTracker15getOrCreateListEv(ptr noundef nonnull align 8 dereferenceable(16) %this1)
          to label %invoke.cont10 unwind label %lpad

invoke.cont10:                                    ; preds = %invoke.cont8
  store ptr %call11, ptr %rl, align 8
  %2 = load ptr, ptr %rl, align 8
  %3 = load ptr, ptr %lock_req.addr, align 8
  %column_family_id = getelementptr inbounds %"struct.rocksdb::RangeLockRequest", ptr %3, i32 0, i32 0
  %4 = load i32, ptr %column_family_id, align 8
  invoke void @_ZN7rocksdb13RangeLockList6AppendEjPK10__toku_dbtS3_(ptr noundef nonnull align 8 dereferenceable(97) %2, i32 noundef %4, ptr noundef %start_dbt, ptr noundef %end_dbt)
          to label %invoke.cont12 unwind label %lpad

invoke.cont12:                                    ; preds = %invoke.cont10
  call void @_ZNSt7__cxx1112basic_stringIcSt11char_traitsIcESaIcEED1Ev(ptr noundef nonnull align 8 dereferenceable(32) %end_key) #13
  call void @_ZNSt7__cxx1112basic_stringIcSt11char_traitsIcESaIcEED1Ev(ptr noundef nonnull align 8 dereferenceable(32) %start_key) #13
  ret void

lpad:                                             ; preds = %invoke.cont10, %invoke.cont8, %invoke.cont4, %invoke.cont2, %invoke.cont, %entry
  %5 = landingpad { ptr, i32 }
          cleanup
  %6 = extractvalue { ptr, i32 } %5, 0
  store ptr %6, ptr %exn.slot, align 8
  %7 = extractvalue { ptr, i32 } %5, 1
  store i32 %7, ptr %ehselector.slot, align 4
  call void @_ZNSt7__cxx1112basic_stringIcSt11char_traitsIcESaIcEED1Ev(ptr noundef nonnull align 8 dereferenceable(32) %end_key) #13
  call void @_ZNSt7__cxx1112basic_stringIcSt11char_traitsIcESaIcEED1Ev(ptr noundef nonnull align 8 dereferenceable(32) %start_key) #13
  br label %eh.resume

eh.resume:                                        ; preds = %lpad
  %exn = load ptr, ptr %exn.slot, align 8
  %sel = load i32, ptr %ehselector.slot, align 4
  %lpad.val = insertvalue { ptr, i32 } poison, ptr %exn, 0
  %lpad.val13 = insertvalue { ptr, i32 } %lpad.val, i32 %sel, 1
  resume { ptr, i32 } %lpad.val13
}