; Function Attrs: mustprogress uwtable
define void @_ZN7rocksdb20RangeTreeLockTracker5TrackERKNS_16RangeLockRequestE(ptr nocapture noundef nonnull align 8 dereferenceable(16) %this, ptr noundef nonnull align 8 dereferenceable(56) %lock_req) unnamed_addr #0 align 2 personality ptr @__gxx_personality_v0 {
entry:
  %start_dbt = alloca %struct.__toku_dbt, align 8
  %end_dbt = alloca %struct.__toku_dbt, align 8
  %start_key = alloca %"class.std::__cxx11::basic_string", align 8
  %end_key = alloca %"class.std::__cxx11::basic_string", align 8
  call void @_ZNSt7__cxx1112basic_stringIcSt11char_traitsIcESaIcEEC1Ev(ptr noundef nonnull align 8 dereferenceable(32) %start_key) #13
  call void @_ZNSt7__cxx1112basic_stringIcSt11char_traitsIcESaIcEEC1Ev(ptr noundef nonnull align 8 dereferenceable(32) %end_key) #13
  %start_endp = getelementptr inbounds i8, ptr %lock_req, i64 8
  invoke void @_ZN7rocksdb18serialize_endpointERKNS_8EndpointEPNSt7__cxx1112basic_stringIcSt11char_traitsIcESaIcEEE(ptr noundef nonnull align 8 dereferenceable(17) %start_endp, ptr noundef nonnull %start_key)
          to label %invoke.cont unwind label %lpad

invoke.cont:                                      ; preds = %entry
  %end_endp = getelementptr inbounds i8, ptr %lock_req, i64 32
  invoke void @_ZN7rocksdb18serialize_endpointERKNS_8EndpointEPNSt7__cxx1112basic_stringIcSt11char_traitsIcESaIcEEE(ptr noundef nonnull align 8 dereferenceable(17) %end_endp, ptr noundef nonnull %end_key)
          to label %invoke.cont2 unwind label %lpad

invoke.cont2:                                     ; preds = %invoke.cont
  %call = call noundef ptr @_ZNSt7__cxx1112basic_stringIcSt11char_traitsIcESaIcEE4dataEv(ptr noundef nonnull align 8 dereferenceable(32) %start_key) #13
  %call3 = call noundef i64 @_ZNKSt7__cxx1112basic_stringIcSt11char_traitsIcESaIcEE4sizeEv(ptr noundef nonnull align 8 dereferenceable(32) %start_key) #13
  %call5 = invoke noundef ptr @_Z13toku_fill_dbtP10__toku_dbtPKvm(ptr noundef nonnull %start_dbt, ptr noundef %call, i64 noundef %call3)
          to label %invoke.cont4 unwind label %lpad

invoke.cont4:                                     ; preds = %invoke.cont2
  %call6 = call noundef ptr @_ZNSt7__cxx1112basic_stringIcSt11char_traitsIcESaIcEE4dataEv(ptr noundef nonnull align 8 dereferenceable(32) %end_key) #13
  %call7 = call noundef i64 @_ZNKSt7__cxx1112basic_stringIcSt11char_traitsIcESaIcEE4sizeEv(ptr noundef nonnull align 8 dereferenceable(32) %end_key) #13
  %call9 = invoke noundef ptr @_Z13toku_fill_dbtP10__toku_dbtPKvm(ptr noundef nonnull %end_dbt, ptr noundef %call6, i64 noundef %call7)
          to label %invoke.cont8 unwind label %lpad

invoke.cont8:                                     ; preds = %invoke.cont4
  %call11 = invoke noundef ptr @_ZN7rocksdb20RangeTreeLockTracker15getOrCreateListEv(ptr noundef nonnull align 8 dereferenceable(16) %this)
          to label %invoke.cont10 unwind label %lpad

invoke.cont10:                                    ; preds = %invoke.cont8
  %0 = load i32, ptr %lock_req, align 8
  invoke void @_ZN7rocksdb13RangeLockList6AppendEjPK10__toku_dbtS3_(ptr noundef nonnull align 8 dereferenceable(97) %call11, i32 noundef %0, ptr noundef nonnull %start_dbt, ptr noundef nonnull %end_dbt)
          to label %invoke.cont12 unwind label %lpad

invoke.cont12:                                    ; preds = %invoke.cont10
  call void @_ZNSt7__cxx1112basic_stringIcSt11char_traitsIcESaIcEED1Ev(ptr noundef nonnull align 8 dereferenceable(32) %end_key) #13
  call void @_ZNSt7__cxx1112basic_stringIcSt11char_traitsIcESaIcEED1Ev(ptr noundef nonnull align 8 dereferenceable(32) %start_key) #13
  ret void

lpad:                                             ; preds = %invoke.cont10, %invoke.cont8, %invoke.cont4, %invoke.cont2, %invoke.cont, %entry
  %1 = landingpad { ptr, i32 }
          cleanup
  call void @_ZNSt7__cxx1112basic_stringIcSt11char_traitsIcESaIcEED1Ev(ptr noundef nonnull align 8 dereferenceable(32) %end_key) #13
  call void @_ZNSt7__cxx1112basic_stringIcSt11char_traitsIcESaIcEED1Ev(ptr noundef nonnull align 8 dereferenceable(32) %start_key) #13
  resume { ptr, i32 } %1
}